CCS PCM C Compiler, Version 5.015, 5967               08-Nov-23 11:52

               Filename:   D:\Set up\VXL\Bai tap 10\DieukhienDC_PWM.lst

               ROM used:   370 words (5%)
                           Largest free fragment is 2048
               RAM used:   12 (3%) at main() level
                           16 (4%) worst case
               Stack used: 3 locations
               Stack size: 8

*
0000:  MOVLW  00
0001:  MOVWF  0A
0002:  GOTO   0EF
0003:  NOP
.................... # INCLUDE <16F887.H> 
.................... //////////// Standard Header file for the PIC16F887 device //////////////// 
.................... /////////////////////////////////////////////////////////////////////////// 
.................... ////        (C) Copyright 1996, 2013 Custom Computer Services          //// 
.................... //// This source code may only be used by licensed users of the CCS C  //// 
.................... //// compiler.  This source code may only be distributed to other      //// 
.................... //// licensed users of the CCS C compiler.  No other use, reproduction //// 
.................... //// or distribution is permitted without written permission.          //// 
.................... //// Derivative programs created using this software in object code    //// 
.................... //// form are not restricted in any way.                               //// 
.................... /////////////////////////////////////////////////////////////////////////// 
.................... #device PIC16F887 
0004:  BCF    0A.0
0005:  BCF    0A.1
0006:  BCF    0A.2
0007:  ADDWF  02,F
0008:  RETLW  C0
0009:  RETLW  F9
000A:  RETLW  A4
000B:  RETLW  B0
000C:  RETLW  99
000D:  RETLW  92
000E:  RETLW  82
000F:  RETLW  F8
0010:  RETLW  80
0011:  RETLW  90
0012:  CLRF   78
0013:  CLRF   79
0014:  CLRF   77
0015:  CLRF   7A
0016:  MOVF   29,W
0017:  BTFSS  03.2
0018:  GOTO   01C
0019:  MOVF   28,W
001A:  BTFSC  03.2
001B:  GOTO   036
001C:  MOVLW  10
001D:  MOVWF  2A
001E:  BCF    03.0
001F:  RLF    26,F
0020:  RLF    27,F
0021:  RLF    77,F
0022:  RLF    7A,F
0023:  MOVF   29,W
0024:  SUBWF  7A,W
0025:  BTFSS  03.2
0026:  GOTO   029
0027:  MOVF   28,W
0028:  SUBWF  77,W
0029:  BTFSS  03.0
002A:  GOTO   032
002B:  MOVF   28,W
002C:  SUBWF  77,F
002D:  BTFSS  03.0
002E:  DECF   7A,F
002F:  MOVF   29,W
0030:  SUBWF  7A,F
0031:  BSF    03.0
0032:  RLF    78,F
0033:  RLF    79,F
0034:  DECFSZ 2A,F
0035:  GOTO   01E
0036:  RETURN
*
00D8:  MOVLW  10
00D9:  MOVWF  2A
00DA:  CLRF   77
00DB:  CLRF   7A
00DC:  RRF    27,F
00DD:  RRF    26,F
00DE:  BTFSS  03.0
00DF:  GOTO   0E6
00E0:  MOVF   28,W
00E1:  ADDWF  77,F
00E2:  BTFSC  03.0
00E3:  INCF   7A,F
00E4:  MOVF   29,W
00E5:  ADDWF  7A,F
00E6:  RRF    7A,F
00E7:  RRF    77,F
00E8:  RRF    79,F
00E9:  RRF    78,F
00EA:  DECFSZ 2A,F
00EB:  GOTO   0DC
00EC:  BCF    0A.3
00ED:  BCF    0A.4
00EE:  GOTO   159 (RETURN)
....................  
.................... #list 
....................  
.................... # FUSES HS  
.................... # USE DELAY (CLOCK = 20M) 
*
0063:  MOVLW  26
0064:  MOVWF  04
0065:  BCF    03.7
0066:  MOVF   00,W
0067:  BTFSC  03.2
0068:  GOTO   076
0069:  MOVLW  06
006A:  MOVWF  78
006B:  CLRF   77
006C:  DECFSZ 77,F
006D:  GOTO   06C
006E:  DECFSZ 78,F
006F:  GOTO   06B
0070:  MOVLW  7B
0071:  MOVWF  77
0072:  DECFSZ 77,F
0073:  GOTO   072
0074:  DECFSZ 00,F
0075:  GOTO   069
0076:  RETURN
.................... # DEFINE UP          PIN_A0 
.................... # DEFINE DW          PIN_A1 
.................... # DEFINE START_STOP  PIN_A2 
.................... # DEFINE ENABLE      PIN_C7   // CHO PHEP L298 HOAT DONG 
....................  
.................... CONST UNSIGNED INT8 MA7DOAN [] = {0XC0, 0XF9, 0XA4, 0XB0, 0X99, 0X92, 0X82, 0XF8, 0X80, 0X90}; 
.................... UNSIGNED INT16 VALUE, CAPTOCDO; 
.................... INT1 TTDC; 
....................  
.................... VOID HIENTHI_MA7DOAN_THEOCAPDO () 
.................... { 
....................    OUTPUT_B (MA7DOAN [CAPTOCDO/10]); 
*
0037:  MOVF   23,W
0038:  MOVWF  27
0039:  MOVF   22,W
003A:  MOVWF  26
003B:  CLRF   29
003C:  MOVLW  0A
003D:  MOVWF  28
003E:  CALL   012
003F:  MOVF   79,W
0040:  MOVWF  27
0041:  MOVF   78,W
0042:  MOVWF  26
0043:  MOVF   79,W
0044:  MOVWF  7A
0045:  MOVF   78,W
0046:  CALL   004
0047:  MOVWF  28
0048:  BSF    03.5
0049:  CLRF   06
004A:  BCF    03.5
004B:  MOVF   28,W
004C:  MOVWF  06
....................    OUTPUT_D (MA7DOAN [CAPTOCDO%10]); 
004D:  MOVF   23,W
004E:  MOVWF  27
004F:  MOVF   22,W
0050:  MOVWF  26
0051:  CLRF   29
0052:  MOVLW  0A
0053:  MOVWF  28
0054:  CALL   012
0055:  MOVF   77,W
0056:  MOVWF  26
0057:  MOVF   7A,W
0058:  MOVWF  27
0059:  MOVWF  7A
005A:  MOVF   77,W
005B:  CALL   004
005C:  MOVWF  28
005D:  BSF    03.5
005E:  CLRF   08
005F:  BCF    03.5
0060:  MOVF   28,W
0061:  MOVWF  08
0062:  RETURN
.................... } 
.................... VOID KT_START_STOP () 
.................... { 
....................    IF (INPUT(START_STOP) == 0) 
*
00BB:  BSF    03.5
00BC:  BSF    05.2
00BD:  BCF    03.5
00BE:  BTFSC  05.2
00BF:  GOTO   0D5
....................    { 
....................       DELAY_MS (20); 
00C0:  MOVLW  14
00C1:  MOVWF  26
00C2:  CALL   063
....................       IF (INPUT(START_STOP)==0) 
00C3:  BSF    03.5
00C4:  BSF    05.2
00C5:  BCF    03.5
00C6:  BTFSC  05.2
00C7:  GOTO   0D5
....................       {   
....................          WHILE (INPUT(START_STOP)==0)  {} 
00C8:  BSF    03.5
00C9:  BSF    05.2
00CA:  BCF    03.5
00CB:  BTFSS  05.2
00CC:  GOTO   0C8
....................          TTDC =~ TTDC; 
00CD:  MOVLW  01
00CE:  XORWF  24,F
....................          IF (TTDC == 1) 
00CF:  BTFSS  24.0
00D0:  GOTO   0D3
....................             TTDC = 1; 
00D1:  BSF    24.0
00D2:  GOTO   0D4
....................          ELSE  
....................             TTDC = 0; 
00D3:  BCF    24.0
....................          HIENTHI_MA7DOAN_THEOCAPDO (); 
00D4:  CALL   037
....................       } 
....................    } 
00D5:  BCF    0A.3
00D6:  BCF    0A.4
00D7:  GOTO   151 (RETURN)
.................... } 
.................... VOID KT_UP () 
.................... { 
....................    IF (INPUT(UP) == 0) 
*
0077:  BSF    03.5
0078:  BSF    05.0
0079:  BCF    03.5
007A:  BTFSC  05.0
007B:  GOTO   097
....................    { 
....................       DELAY_MS (20); 
007C:  MOVLW  14
007D:  MOVWF  26
007E:  CALL   063
....................       IF (INPUT(UP)==0) 
007F:  BSF    03.5
0080:  BSF    05.0
0081:  BCF    03.5
0082:  BTFSC  05.0
0083:  GOTO   097
....................       {   
....................          WHILE (INPUT(UP)==0)  {} 
0084:  BSF    03.5
0085:  BSF    05.0
0086:  BCF    03.5
0087:  BTFSS  05.0
0088:  GOTO   084
....................          CAPTOCDO ++; 
0089:  INCF   22,F
008A:  BTFSC  03.2
008B:  INCF   23,F
....................          IF (CAPTOCDO > 10) 
008C:  MOVF   23,F
008D:  BTFSS  03.2
008E:  GOTO   093
008F:  MOVF   22,W
0090:  SUBLW  0A
0091:  BTFSC  03.0
0092:  GOTO   096
....................             CAPTOCDO = 10; 
0093:  CLRF   23
0094:  MOVLW  0A
0095:  MOVWF  22
....................          HIENTHI_MA7DOAN_THEOCAPDO (); 
0096:  CALL   037
....................       } 
....................    } 
0097:  BCF    0A.3
0098:  BCF    0A.4
0099:  GOTO   14F (RETURN)
.................... } 
.................... VOID KT_DW () 
.................... { 
....................    IF (INPUT(DW) == 0) 
009A:  BSF    03.5
009B:  BSF    05.1
009C:  BCF    03.5
009D:  BTFSC  05.1
009E:  GOTO   0B8
....................    { 
....................       DELAY_MS (20); 
009F:  MOVLW  14
00A0:  MOVWF  26
00A1:  CALL   063
....................       IF (INPUT(DW)==0) 
00A2:  BSF    03.5
00A3:  BSF    05.1
00A4:  BCF    03.5
00A5:  BTFSC  05.1
00A6:  GOTO   0B8
....................       {   
....................          WHILE (INPUT(DW)==0)  {} 
00A7:  BSF    03.5
00A8:  BSF    05.1
00A9:  BCF    03.5
00AA:  BTFSS  05.1
00AB:  GOTO   0A7
....................          CAPTOCDO --; 
00AC:  MOVF   22,W
00AD:  BTFSC  03.2
00AE:  DECF   23,F
00AF:  DECFSZ 22,F
....................          IF (CAPTOCDO < 1) 
00B0:  GOTO   0B7
00B1:  MOVF   23,F
00B2:  BTFSS  03.2
00B3:  GOTO   0B7
....................             CAPTOCDO = 1; 
00B4:  CLRF   23
00B5:  MOVLW  01
00B6:  MOVWF  22
....................          HIENTHI_MA7DOAN_THEOCAPDO (); 
00B7:  CALL   037
....................       } 
....................    } 
00B8:  BCF    0A.3
00B9:  BCF    0A.4
00BA:  GOTO   150 (RETURN)
.................... } 
....................  
.................... VOID MAIN () 
*
00EF:  MOVF   03,W
00F0:  ANDLW  1F
00F1:  MOVWF  03
00F2:  MOVLW  FF
00F3:  MOVWF  25
00F4:  BSF    03.5
00F5:  BSF    03.6
00F6:  MOVF   09,W
00F7:  ANDLW  C0
00F8:  MOVWF  09
00F9:  BCF    03.6
00FA:  BCF    1F.4
00FB:  BCF    1F.5
00FC:  MOVLW  00
00FD:  BSF    03.6
00FE:  MOVWF  08
00FF:  BCF    03.5
0100:  CLRF   07
0101:  CLRF   08
0102:  CLRF   09
0103:  BCF    03.7
.................... { 
....................    SET_TRIS_A (0XFF); 
0104:  MOVLW  FF
0105:  BSF    03.5
0106:  BCF    03.6
0107:  MOVWF  05
....................    SET_TRIS_B (0X00); 
0108:  MOVLW  00
0109:  MOVWF  06
....................    SET_TRIS_C (0X00); 
010A:  MOVWF  07
010B:  BCF    03.5
010C:  MOVWF  25
....................    SET_TRIS_D (0X00); 
010D:  BSF    03.5
010E:  MOVWF  08
....................     
....................    OUTPUT_LOW (PIN_C3); // CHO PHEP DC CHAY THUAN  
010F:  BCF    03.5
0110:  BCF    25.3
0111:  MOVF   25,W
0112:  BSF    03.5
0113:  MOVWF  07
0114:  BCF    03.5
0115:  BCF    07.3
....................    SETUP_CCP1 (CCP_PWM);   // CAU HINH CHAN CCP1 LA CHAN OUT PWM (PHAT XUNG) 
0116:  BCF    25.2
0117:  MOVF   25,W
0118:  BSF    03.5
0119:  MOVWF  07
011A:  BCF    03.5
011B:  BCF    07.2
011C:  MOVLW  0C
011D:  MOVWF  17
011E:  BSF    03.5
011F:  CLRF   1B
0120:  CLRF   1C
0121:  MOVLW  01
0122:  MOVWF  1D
....................    SETUP_TIMER_2 (T2_DIV_BY_16, 249, 1); // THIET LAP CHU KY XUNG PWM = 0,8MS 
0123:  MOVLW  00
0124:  MOVWF  78
0125:  IORLW  06
0126:  BCF    03.5
0127:  MOVWF  12
0128:  MOVLW  F9
0129:  BSF    03.5
012A:  MOVWF  12
....................    SET_TIMER2 (0); 
012B:  BCF    03.5
012C:  CLRF   11
....................    OUTPUT_HIGH (ENABLE); 
012D:  BCF    25.7
012E:  MOVF   25,W
012F:  BSF    03.5
0130:  MOVWF  07
0131:  BCF    03.5
0132:  BSF    07.7
....................     
....................    VALUE = 0; 
0133:  CLRF   21
0134:  CLRF   20
....................    TTDC = 0; 
0135:  BCF    24.0
....................    CAPTOCDO = 0; 
0136:  CLRF   23
0137:  CLRF   22
....................    SET_PWM1_DUTY (VALUE); 
0138:  MOVF   21,W
0139:  MOVWF  79
013A:  MOVF   20,W
013B:  MOVWF  78
013C:  RRF    79,F
013D:  RRF    78,F
013E:  RRF    79,F
013F:  RRF    78,F
0140:  RRF    79,F
0141:  MOVF   78,W
0142:  MOVWF  15
0143:  RRF    79,F
0144:  RRF    79,W
0145:  ANDLW  30
0146:  MOVWF  77
0147:  MOVF   17,W
0148:  ANDLW  CF
0149:  IORWF  77,W
014A:  MOVWF  17
....................    HIENTHI_MA7DOAN_THEOCAPDO (); 
014B:  CALL   037
....................    WHILE (TRUE) 
....................    { 
....................       IF (TTDC == 1) 
014C:  BTFSS  24.0
014D:  GOTO   150
....................       { 
....................          KT_UP(); 
014E:  GOTO   077
....................          KT_DW(); 
014F:  GOTO   09A
....................       } 
....................       KT_START_STOP (); 
0150:  GOTO   0BB
....................       VALUE = CAPTOCDO * 100; 
0151:  MOVF   23,W
0152:  MOVWF  27
0153:  MOVF   22,W
0154:  MOVWF  26
0155:  CLRF   29
0156:  MOVLW  64
0157:  MOVWF  28
0158:  GOTO   0D8
0159:  MOVF   79,W
015A:  MOVWF  21
015B:  MOVF   78,W
015C:  MOVWF  20
....................       SET_PWM1_DUTY (VALUE); 
015D:  MOVF   21,W
015E:  MOVWF  79
015F:  MOVF   20,W
0160:  MOVWF  78
0161:  RRF    79,F
0162:  RRF    78,F
0163:  RRF    79,F
0164:  RRF    78,F
0165:  RRF    79,F
0166:  MOVF   78,W
0167:  MOVWF  15
0168:  RRF    79,F
0169:  RRF    79,W
016A:  ANDLW  30
016B:  MOVWF  77
016C:  MOVF   17,W
016D:  ANDLW  CF
016E:  IORWF  77,W
016F:  MOVWF  17
0170:  GOTO   14C
....................    } 
.................... } 
0171:  SLEEP

Configuration Fuses:
   Word  1: 2FE2   HS NOWDT PUT MCLR NOPROTECT NOCPD BROWNOUT IESO FCMEN NOLVP NODEBUG
   Word  2: 3FFF   BORV40 NOWRT
