CCS PCM C Compiler, Version 5.015, 5967               14-Nov-23 23:59

               Filename:   D:\Set up\VXL\Bai tap 12\Baitap12_MCU01.lst

               ROM used:   520 words (6%)
                           Largest free fragment is 2048
               RAM used:   10 (3%) at main() level
                           24 (7%) worst case
               Stack used: 2 locations
               Stack size: 8

*
0000:  MOVLW  01
0001:  MOVWF  0A
0002:  GOTO   185
0003:  NOP
.................... # INCLUDE <16F887.H> 
.................... //////////// Standard Header file for the PIC16F887 device //////////////// 
.................... /////////////////////////////////////////////////////////////////////////// 
.................... ////        (C) Copyright 1996, 2013 Custom Computer Services          //// 
.................... //// This source code may only be used by licensed users of the CCS C  //// 
.................... //// compiler.  This source code may only be distributed to other      //// 
.................... //// licensed users of the CCS C compiler.  No other use, reproduction //// 
.................... //// or distribution is permitted without written permission.          //// 
.................... //// Derivative programs created using this software in object code    //// 
.................... //// form are not restricted in any way.                               //// 
.................... /////////////////////////////////////////////////////////////////////////// 
.................... #device PIC16F887 
0004:  BCF    0A.0
0005:  BCF    0A.1
0006:  BCF    0A.2
0007:  ADDWF  02,F
0008:  RETLW  C0
0009:  RETLW  F9
000A:  RETLW  A4
000B:  RETLW  B0
000C:  RETLW  99
000D:  RETLW  92
000E:  RETLW  82
000F:  RETLW  F8
0010:  RETLW  80
0011:  RETLW  90
*
0026:  MOVLW  8E
0027:  MOVWF  77
0028:  MOVF   26,W
0029:  MOVWF  78
002A:  MOVF   25,W
002B:  MOVWF  79
002C:  CLRF   7A
002D:  MOVF   78,F
002E:  BTFSS  03.2
002F:  GOTO   03A
0030:  MOVF   79,W
0031:  MOVWF  78
0032:  CLRF   79
0033:  MOVLW  08
0034:  SUBWF  77,F
0035:  MOVF   78,F
0036:  BTFSS  03.2
0037:  GOTO   03A
0038:  CLRF   77
0039:  GOTO   042
003A:  BCF    03.0
003B:  BTFSC  78.7
003C:  GOTO   041
003D:  RLF    79,F
003E:  RLF    78,F
003F:  DECF   77,F
0040:  GOTO   03A
0041:  BCF    78.7
0042:  BCF    0A.3
0043:  BCF    0A.4
0044:  GOTO   1D8 (RETURN)
0045:  MOVF   25,W
0046:  BTFSC  03.2
0047:  GOTO   10A
0048:  MOVWF  31
0049:  MOVF   29,W
004A:  BTFSC  03.2
004B:  GOTO   10A
004C:  SUBWF  31,F
004D:  BTFSS  03.0
004E:  GOTO   054
004F:  MOVLW  7F
0050:  ADDWF  31,F
0051:  BTFSC  03.0
0052:  GOTO   10A
0053:  GOTO   05A
0054:  MOVLW  81
0055:  SUBWF  31,F
0056:  BTFSS  03.0
0057:  GOTO   10A
0058:  BTFSC  03.2
0059:  GOTO   10A
005A:  MOVF   31,W
005B:  MOVWF  77
005C:  CLRF   78
005D:  CLRF   79
005E:  CLRF   7A
005F:  CLRF   30
0060:  MOVF   26,W
0061:  MOVWF  2F
0062:  BSF    2F.7
0063:  MOVF   27,W
0064:  MOVWF  2E
0065:  MOVF   28,W
0066:  MOVWF  2D
0067:  MOVLW  19
0068:  MOVWF  31
0069:  MOVF   2C,W
006A:  SUBWF  2D,F
006B:  BTFSC  03.0
006C:  GOTO   07D
006D:  MOVLW  01
006E:  SUBWF  2E,F
006F:  BTFSC  03.0
0070:  GOTO   07D
0071:  SUBWF  2F,F
0072:  BTFSC  03.0
0073:  GOTO   07D
0074:  SUBWF  30,F
0075:  BTFSC  03.0
0076:  GOTO   07D
0077:  INCF   30,F
0078:  INCF   2F,F
0079:  INCF   2E,F
007A:  MOVF   2C,W
007B:  ADDWF  2D,F
007C:  GOTO   0AF
007D:  MOVF   2B,W
007E:  SUBWF  2E,F
007F:  BTFSC  03.0
0080:  GOTO   098
0081:  MOVLW  01
0082:  SUBWF  2F,F
0083:  BTFSC  03.0
0084:  GOTO   098
0085:  SUBWF  30,F
0086:  BTFSC  03.0
0087:  GOTO   098
0088:  INCF   30,F
0089:  INCF   2F,F
008A:  MOVF   2B,W
008B:  ADDWF  2E,F
008C:  MOVF   2C,W
008D:  ADDWF  2D,F
008E:  BTFSS  03.0
008F:  GOTO   0AF
0090:  INCF   2E,F
0091:  BTFSS  03.2
0092:  GOTO   0AF
0093:  INCF   2F,F
0094:  BTFSS  03.2
0095:  GOTO   0AF
0096:  INCF   30,F
0097:  GOTO   0AF
0098:  MOVF   2A,W
0099:  IORLW  80
009A:  SUBWF  2F,F
009B:  BTFSC  03.0
009C:  GOTO   0AE
009D:  MOVLW  01
009E:  SUBWF  30,F
009F:  BTFSC  03.0
00A0:  GOTO   0AE
00A1:  INCF   30,F
00A2:  MOVF   2A,W
00A3:  IORLW  80
00A4:  ADDWF  2F,F
00A5:  MOVF   2B,W
00A6:  ADDWF  2E,F
00A7:  BTFSS  03.0
00A8:  GOTO   08C
00A9:  INCF   2F,F
00AA:  BTFSS  03.2
00AB:  GOTO   08C
00AC:  INCF   30,F
00AD:  GOTO   08C
00AE:  BSF    7A.0
00AF:  DECFSZ 31,F
00B0:  GOTO   0B2
00B1:  GOTO   0BD
00B2:  BCF    03.0
00B3:  RLF    2D,F
00B4:  RLF    2E,F
00B5:  RLF    2F,F
00B6:  RLF    30,F
00B7:  BCF    03.0
00B8:  RLF    7A,F
00B9:  RLF    79,F
00BA:  RLF    78,F
00BB:  RLF    32,F
00BC:  GOTO   069
00BD:  BTFSS  32.0
00BE:  GOTO   0C5
00BF:  BCF    03.0
00C0:  RRF    78,F
00C1:  RRF    79,F
00C2:  RRF    7A,F
00C3:  RRF    32,F
00C4:  GOTO   0C8
00C5:  DECF   77,F
00C6:  BTFSC  03.2
00C7:  GOTO   10A
00C8:  BTFSC  32.7
00C9:  GOTO   0F1
00CA:  BCF    03.0
00CB:  RLF    2D,F
00CC:  RLF    2E,F
00CD:  RLF    2F,F
00CE:  RLF    30,F
00CF:  MOVF   2C,W
00D0:  SUBWF  2D,F
00D1:  BTFSC  03.0
00D2:  GOTO   0DD
00D3:  MOVLW  01
00D4:  SUBWF  2E,F
00D5:  BTFSC  03.0
00D6:  GOTO   0DD
00D7:  SUBWF  2F,F
00D8:  BTFSC  03.0
00D9:  GOTO   0DD
00DA:  SUBWF  30,F
00DB:  BTFSS  03.0
00DC:  GOTO   100
00DD:  MOVF   2B,W
00DE:  SUBWF  2E,F
00DF:  BTFSC  03.0
00E0:  GOTO   0E8
00E1:  MOVLW  01
00E2:  SUBWF  2F,F
00E3:  BTFSC  03.0
00E4:  GOTO   0E8
00E5:  SUBWF  30,F
00E6:  BTFSS  03.0
00E7:  GOTO   100
00E8:  MOVF   2A,W
00E9:  IORLW  80
00EA:  SUBWF  2F,F
00EB:  BTFSC  03.0
00EC:  GOTO   0F1
00ED:  MOVLW  01
00EE:  SUBWF  30,F
00EF:  BTFSS  03.0
00F0:  GOTO   100
00F1:  INCF   7A,F
00F2:  BTFSS  03.2
00F3:  GOTO   100
00F4:  INCF   79,F
00F5:  BTFSS  03.2
00F6:  GOTO   100
00F7:  INCF   78,F
00F8:  BTFSS  03.2
00F9:  GOTO   100
00FA:  INCF   77,F
00FB:  BTFSC  03.2
00FC:  GOTO   10A
00FD:  RRF    78,F
00FE:  RRF    79,F
00FF:  RRF    7A,F
0100:  MOVF   26,W
0101:  MOVWF  31
0102:  MOVF   2A,W
0103:  XORWF  31,F
0104:  BTFSS  31.7
0105:  GOTO   108
0106:  BSF    78.7
0107:  GOTO   10E
0108:  BCF    78.7
0109:  GOTO   10E
010A:  CLRF   77
010B:  CLRF   78
010C:  CLRF   79
010D:  CLRF   7A
010E:  BCF    0A.3
010F:  BCF    0A.4
0110:  GOTO   1E9 (RETURN)
0111:  MOVLW  8E
0112:  MOVWF  77
0113:  MOVF   23,W
0114:  SUBWF  77,F
0115:  MOVF   24,W
0116:  MOVWF  79
0117:  MOVF   25,W
0118:  MOVWF  78
0119:  BSF    79.7
011A:  MOVF   77,F
011B:  BTFSC  03.2
011C:  GOTO   128
011D:  BCF    03.0
011E:  MOVF   79,F
011F:  BTFSS  03.2
0120:  GOTO   124
0121:  MOVF   78,F
0122:  BTFSC  03.2
0123:  GOTO   128
0124:  RRF    79,F
0125:  RRF    78,F
0126:  DECFSZ 77,F
0127:  GOTO   11D
0128:  BTFSS  24.7
0129:  GOTO   12F
012A:  COMF   78,F
012B:  COMF   79,F
012C:  INCF   78,F
012D:  BTFSC  03.2
012E:  INCF   79,F
012F:  BCF    0A.3
0130:  BCF    0A.4
0131:  GOTO   1F2 (RETURN)
0132:  CLRF   78
0133:  CLRF   79
0134:  CLRF   77
0135:  CLRF   7A
0136:  MOVF   26,W
0137:  BTFSS  03.2
0138:  GOTO   13C
0139:  MOVF   25,W
013A:  BTFSC  03.2
013B:  GOTO   156
013C:  MOVLW  10
013D:  MOVWF  27
013E:  BCF    03.0
013F:  RLF    23,F
0140:  RLF    24,F
0141:  RLF    77,F
0142:  RLF    7A,F
0143:  MOVF   26,W
0144:  SUBWF  7A,W
0145:  BTFSS  03.2
0146:  GOTO   149
0147:  MOVF   25,W
0148:  SUBWF  77,W
0149:  BTFSS  03.0
014A:  GOTO   152
014B:  MOVF   25,W
014C:  SUBWF  77,F
014D:  BTFSS  03.0
014E:  DECF   7A,F
014F:  MOVF   26,W
0150:  SUBWF  7A,F
0151:  BSF    03.0
0152:  RLF    78,F
0153:  RLF    79,F
0154:  DECFSZ 27,F
0155:  GOTO   13E
0156:  RETURN
....................  
.................... #list 
....................  
.................... # DEVICE ADC = 10 
.................... # FUSES HS 
.................... # USE DELAY (CLOCK = 20M) 
*
0012:  MOVLW  24
0013:  MOVWF  04
0014:  BCF    03.7
0015:  MOVF   00,W
0016:  BTFSC  03.2
0017:  GOTO   025
0018:  MOVLW  06
0019:  MOVWF  78
001A:  CLRF   77
001B:  DECFSZ 77,F
001C:  GOTO   01B
001D:  DECFSZ 78,F
001E:  GOTO   01A
001F:  MOVLW  7B
0020:  MOVWF  77
0021:  DECFSZ 77,F
0022:  GOTO   021
0023:  DECFSZ 00,F
0024:  GOTO   018
0025:  RETURN
.................... # USE RS232 (BAUD = 9600, XMIT = PIN_C6, RCV = PIN_C7) 
....................  
.................... CONST UNSIGNED INT8 MA7DOAN [] = {0XC0, 0XF9, 0XA4, 0XB0, 0X99, 0X92, 0X82, 0XF8, 0X80, 0X90}; 
.................... UNSIGNED INT16 ND; 
.................... UNSIGNED INT8 TEMP; 
....................  
.................... VOID HIENTHI_LED7DOAN () 
.................... { 
....................    OUTPUT_B (MA7DOAN [ND/10]); 
*
0157:  MOVF   21,W
0158:  MOVWF  24
0159:  MOVF   20,W
015A:  MOVWF  23
015B:  CLRF   26
015C:  MOVLW  0A
015D:  MOVWF  25
015E:  CALL   132
015F:  MOVF   79,W
0160:  MOVWF  24
0161:  MOVF   78,W
0162:  MOVWF  23
0163:  MOVF   79,W
0164:  MOVWF  7A
0165:  MOVF   78,W
0166:  CALL   004
0167:  MOVWF  25
0168:  BSF    03.5
0169:  CLRF   06
016A:  BCF    03.5
016B:  MOVF   25,W
016C:  MOVWF  06
....................    OUTPUT_D (MA7DOAN [ND%10]); 
016D:  MOVF   21,W
016E:  MOVWF  24
016F:  MOVF   20,W
0170:  MOVWF  23
0171:  CLRF   26
0172:  MOVLW  0A
0173:  MOVWF  25
0174:  CALL   132
0175:  MOVF   77,W
0176:  MOVWF  23
0177:  MOVF   7A,W
0178:  MOVWF  24
0179:  MOVWF  7A
017A:  MOVF   77,W
017B:  CALL   004
017C:  MOVWF  25
017D:  BSF    03.5
017E:  CLRF   08
017F:  BCF    03.5
0180:  MOVF   25,W
0181:  MOVWF  08
0182:  BCF    0A.3
0183:  BCF    0A.4
0184:  GOTO   1F9 (RETURN)
.................... } 
....................  
.................... VOID MAIN () 
0185:  MOVF   03,W
0186:  ANDLW  1F
0187:  MOVWF  03
0188:  BSF    03.5
0189:  BSF    03.6
018A:  BSF    07.3
018B:  MOVLW  08
018C:  BCF    03.6
018D:  MOVWF  19
018E:  MOVLW  02
018F:  MOVWF  1A
0190:  MOVLW  A6
0191:  MOVWF  18
0192:  MOVLW  90
0193:  BCF    03.5
0194:  MOVWF  18
0195:  BSF    03.5
0196:  BSF    03.6
0197:  MOVF   09,W
0198:  ANDLW  C0
0199:  MOVWF  09
019A:  BCF    03.6
019B:  BCF    1F.4
019C:  BCF    1F.5
019D:  MOVLW  00
019E:  BSF    03.6
019F:  MOVWF  08
01A0:  BCF    03.5
01A1:  CLRF   07
01A2:  CLRF   08
01A3:  CLRF   09
01A4:  BCF    03.7
.................... { 
....................    SET_TRIS_B (0X00); 
01A5:  MOVLW  00
01A6:  BSF    03.5
01A7:  BCF    03.6
01A8:  MOVWF  06
....................    SET_TRIS_D (0X00); 
01A9:  MOVWF  08
....................    SET_TRIS_A (0XFF); 
01AA:  MOVLW  FF
01AB:  MOVWF  05
....................     
....................    SETUP_ADC (ADC_CLOCK_DIV_2); 
01AC:  BCF    03.5
01AD:  BCF    1F.6
01AE:  BCF    1F.7
01AF:  BSF    03.5
01B0:  BSF    1F.7
01B1:  BCF    03.5
01B2:  BSF    1F.0
....................    SETUP_ADC_PORTS (SAN0|VSS_VDD); 
01B3:  BSF    03.5
01B4:  BSF    03.6
01B5:  MOVF   09,W
01B6:  ANDLW  C0
01B7:  MOVWF  09
01B8:  BCF    03.6
01B9:  BCF    1F.4
01BA:  BCF    1F.5
01BB:  MOVLW  01
01BC:  BSF    03.6
01BD:  MOVWF  08
.................... //!   SET_ADC_CHANNEL (0); 
.................... //!   DELAY_MS (10); 
....................    WHILE (TRUE) 
....................    { 
....................       SET_ADC_CHANNEL (0); 
01BE:  MOVLW  00
01BF:  MOVWF  78
01C0:  BCF    03.5
01C1:  BCF    03.6
01C2:  MOVF   1F,W
01C3:  ANDLW  C3
01C4:  IORWF  78,W
01C5:  MOVWF  1F
....................       DELAY_MS (10); 
01C6:  MOVLW  0A
01C7:  MOVWF  24
01C8:  CALL   012
....................       ND = READ_ADC () / 2.046; 
01C9:  BSF    1F.1
01CA:  BTFSC  1F.1
01CB:  GOTO   1CA
01CC:  MOVF   1E,W
01CD:  MOVWF  7A
01CE:  BSF    03.5
01CF:  MOVF   1E,W
01D0:  BCF    03.5
01D1:  MOVWF  23
01D2:  MOVF   1E,W
01D3:  MOVWF  24
01D4:  MOVWF  26
01D5:  MOVF   23,W
01D6:  MOVWF  25
01D7:  GOTO   026
01D8:  MOVF   7A,W
01D9:  MOVWF  28
01DA:  MOVF   79,W
01DB:  MOVWF  27
01DC:  MOVF   78,W
01DD:  MOVWF  26
01DE:  MOVF   77,W
01DF:  MOVWF  25
01E0:  MOVLW  AA
01E1:  MOVWF  2C
01E2:  MOVLW  F1
01E3:  MOVWF  2B
01E4:  MOVLW  02
01E5:  MOVWF  2A
01E6:  MOVLW  80
01E7:  MOVWF  29
01E8:  GOTO   045
01E9:  MOVF   7A,W
01EA:  MOVWF  26
01EB:  MOVF   79,W
01EC:  MOVWF  25
01ED:  MOVF   78,W
01EE:  MOVWF  24
01EF:  MOVF   77,W
01F0:  MOVWF  23
01F1:  GOTO   111
01F2:  MOVF   79,W
01F3:  MOVWF  21
01F4:  MOVF   78,W
01F5:  MOVWF  20
....................       TEMP = ND; 
01F6:  MOVF   20,W
01F7:  MOVWF  22
....................       HIENTHI_LED7DOAN (); 
01F8:  GOTO   157
....................       PUTC(TEMP); 
01F9:  MOVF   22,W
01FA:  BTFSS  0C.4
01FB:  GOTO   1FA
01FC:  MOVWF  19
....................       DELAY_MS (1000); 
01FD:  MOVLW  04
01FE:  MOVWF  23
01FF:  MOVLW  FA
0200:  MOVWF  24
0201:  CALL   012
0202:  DECFSZ 23,F
0203:  GOTO   1FF
0204:  BSF    03.5
0205:  BSF    03.6
0206:  GOTO   1BE
....................    } 
.................... } 
0207:  SLEEP

Configuration Fuses:
   Word  1: 2FE2   HS NOWDT PUT MCLR NOPROTECT NOCPD BROWNOUT IESO FCMEN NOLVP NODEBUG
   Word  2: 3FFF   BORV40 NOWRT
